target datalayout = "e-m:e-p270:32:32-p271:32:32-p272:64:64-i64:64-i128:128-f80:128-n8:16:32:64-S128"
target triple = "x86_64-pc-linux-gnu"

%struct.Fraig_NodeStruct_t_ = type { i32, i32, i32, i32, i32, i32, i32, ptr, ptr, ptr, ptr, ptr, ptr, ptr, ptr, i32, i32, ptr, ptr, ptr, ptr, ptr, ptr, ptr }

; Function Attrs: nounwind uwtable
define ptr @Fraig_NodeRecognizeMux(ptr noundef %0, ptr noundef %1, ptr noundef %2) #0 {
  %4 = alloca ptr, align 8
  %5 = alloca ptr, align 8
  %6 = alloca ptr, align 8
  %7 = alloca ptr, align 8
  %8 = alloca ptr, align 8
  %9 = alloca ptr, align 8
  store ptr %0, ptr %5, align 8
  store ptr %1, ptr %6, align 8
  store ptr %2, ptr %7, align 8
  %10 = load ptr, ptr %5, align 8
  %11 = getelementptr inbounds %struct.Fraig_NodeStruct_t_, ptr %10, i32 0, i32 7
  %12 = load ptr, ptr %11, align 8
  %13 = ptrtoint ptr %12 to i64
  %14 = and i64 %13, -2
  %15 = inttoptr i64 %14 to ptr
  store ptr %15, ptr %8, align 8
  %16 = load ptr, ptr %5, align 8
  %17 = getelementptr inbounds %struct.Fraig_NodeStruct_t_, ptr %16, i32 0, i32 8
  %18 = load ptr, ptr %17, align 8
  %19 = ptrtoint ptr %18 to i64
  %20 = and i64 %19, -2
  %21 = inttoptr i64 %20 to ptr
  store ptr %21, ptr %9, align 8
  %22 = load ptr, ptr %8, align 8
  %23 = getelementptr inbounds %struct.Fraig_NodeStruct_t_, ptr %22, i32 0, i32 7
  %24 = load ptr, ptr %23, align 8
  %25 = load ptr, ptr %9, align 8
  %26 = getelementptr inbounds %struct.Fraig_NodeStruct_t_, ptr %25, i32 0, i32 7
  %27 = load ptr, ptr %26, align 8
  %28 = ptrtoint ptr %27 to i64
  %29 = xor i64 %28, 1
  %30 = inttoptr i64 %29 to ptr
  %31 = icmp eq ptr %24, %30
  br i1 %31, label %32, label %76

32:                                               ; preds = %3
  %33 = load ptr, ptr %8, align 8
  %34 = getelementptr inbounds %struct.Fraig_NodeStruct_t_, ptr %33, i32 0, i32 7
  %35 = load ptr, ptr %34, align 8
  %36 = ptrtoint ptr %35 to i64
  %37 = and i64 %36, 1
  %38 = trunc i64 %37 to i32
  %39 = icmp ne i32 %38, 0
  br i1 %39, label %40, label %58

40:                                               ; preds = %32
  %41 = load ptr, ptr %9, align 8
  %42 = getelementptr inbounds %struct.Fraig_NodeStruct_t_, ptr %41, i32 0, i32 8
  %43 = load ptr, ptr %42, align 8
  %44 = ptrtoint ptr %43 to i64
  %45 = xor i64 %44, 1
  %46 = inttoptr i64 %45 to ptr
  %47 = load ptr, ptr %6, align 8
  store ptr %46, ptr %47, align 8
  %48 = load ptr, ptr %8, align 8
  %49 = getelementptr inbounds %struct.Fraig_NodeStruct_t_, ptr %48, i32 0, i32 8
  %50 = load ptr, ptr %49, align 8
  %51 = ptrtoint ptr %50 to i64
  %52 = xor i64 %51, 1
  %53 = inttoptr i64 %52 to ptr
  %54 = load ptr, ptr %7, align 8
  store ptr %53, ptr %54, align 8
  %55 = load ptr, ptr %9, align 8
  %56 = getelementptr inbounds %struct.Fraig_NodeStruct_t_, ptr %55, i32 0, i32 7
  %57 = load ptr, ptr %56, align 8
  store ptr %57, ptr %4, align 8
  br label %245

58:                                               ; preds = %32
  %59 = load ptr, ptr %8, align 8
  %60 = getelementptr inbounds %struct.Fraig_NodeStruct_t_, ptr %59, i32 0, i32 8
  %61 = load ptr, ptr %60, align 8
  %62 = ptrtoint ptr %61 to i64
  %63 = xor i64 %62, 1
  %64 = inttoptr i64 %63 to ptr
  %65 = load ptr, ptr %6, align 8
  store ptr %64, ptr %65, align 8
  %66 = load ptr, ptr %9, align 8
  %67 = getelementptr inbounds %struct.Fraig_NodeStruct_t_, ptr %66, i32 0, i32 8
  %68 = load ptr, ptr %67, align 8
  %69 = ptrtoint ptr %68 to i64
  %70 = xor i64 %69, 1
  %71 = inttoptr i64 %70 to ptr
  %72 = load ptr, ptr %7, align 8
  store ptr %71, ptr %72, align 8
  %73 = load ptr, ptr %8, align 8
  %74 = getelementptr inbounds %struct.Fraig_NodeStruct_t_, ptr %73, i32 0, i32 7
  %75 = load ptr, ptr %74, align 8
  store ptr %75, ptr %4, align 8
  br label %245

76:                                               ; preds = %3
  %77 = load ptr, ptr %8, align 8
  %78 = getelementptr inbounds %struct.Fraig_NodeStruct_t_, ptr %77, i32 0, i32 7
  %79 = load ptr, ptr %78, align 8
  %80 = load ptr, ptr %9, align 8
  %81 = getelementptr inbounds %struct.Fraig_NodeStruct_t_, ptr %80, i32 0, i32 8
  %82 = load ptr, ptr %81, align 8
  %83 = ptrtoint ptr %82 to i64
  %84 = xor i64 %83, 1
  %85 = inttoptr i64 %84 to ptr
  %86 = icmp eq ptr %79, %85
  br i1 %86, label %87, label %131

87:                                               ; preds = %76
  %88 = load ptr, ptr %8, align 8
  %89 = getelementptr inbounds %struct.Fraig_NodeStruct_t_, ptr %88, i32 0, i32 7
  %90 = load ptr, ptr %89, align 8
  %91 = ptrtoint ptr %90 to i64
  %92 = and i64 %91, 1
  %93 = trunc i64 %92 to i32
  %94 = icmp ne i32 %93, 0
  br i1 %94, label %95, label %113

95:                                               ; preds = %87
  %96 = load ptr, ptr %9, align 8
  %97 = getelementptr inbounds %struct.Fraig_NodeStruct_t_, ptr %96, i32 0, i32 7
  %98 = load ptr, ptr %97, align 8
  %99 = ptrtoint ptr %98 to i64
  %100 = xor i64 %99, 1
  %101 = inttoptr i64 %100 to ptr
  %102 = load ptr, ptr %6, align 8
  store ptr %101, ptr %102, align 8
  %103 = load ptr, ptr %8, align 8
  %104 = getelementptr inbounds %struct.Fraig_NodeStruct_t_, ptr %103, i32 0, i32 8
  %105 = load ptr, ptr %104, align 8
  %106 = ptrtoint ptr %105 to i64
  %107 = xor i64 %106, 1
  %108 = inttoptr i64 %107 to ptr
  %109 = load ptr, ptr %7, align 8
  store ptr %108, ptr %109, align 8
  %110 = load ptr, ptr %9, align 8
  %111 = getelementptr inbounds %struct.Fraig_NodeStruct_t_, ptr %110, i32 0, i32 8
  %112 = load ptr, ptr %111, align 8
  store ptr %112, ptr %4, align 8
  br label %245

113:                                              ; preds = %87
  %114 = load ptr, ptr %8, align 8
  %115 = getelementptr inbounds %struct.Fraig_NodeStruct_t_, ptr %114, i32 0, i32 8
  %116 = load ptr, ptr %115, align 8
  %117 = ptrtoint ptr %116 to i64
  %118 = xor i64 %117, 1
  %119 = inttoptr i64 %118 to ptr
  %120 = load ptr, ptr %6, align 8
  store ptr %119, ptr %120, align 8
  %121 = load ptr, ptr %9, align 8
  %122 = getelementptr inbounds %struct.Fraig_NodeStruct_t_, ptr %121, i32 0, i32 7
  %123 = load ptr, ptr %122, align 8
  %124 = ptrtoint ptr %123 to i64
  %125 = xor i64 %124, 1
  %126 = inttoptr i64 %125 to ptr
  %127 = load ptr, ptr %7, align 8
  store ptr %126, ptr %127, align 8
  %128 = load ptr, ptr %8, align 8
  %129 = getelementptr inbounds %struct.Fraig_NodeStruct_t_, ptr %128, i32 0, i32 7
  %130 = load ptr, ptr %129, align 8
  store ptr %130, ptr %4, align 8
  br label %245

131:                                              ; preds = %76
  %132 = load ptr, ptr %8, align 8
  %133 = getelementptr inbounds %struct.Fraig_NodeStruct_t_, ptr %132, i32 0, i32 8
  %134 = load ptr, ptr %133, align 8
  %135 = load ptr, ptr %9, align 8
  %136 = getelementptr inbounds %struct.Fraig_NodeStruct_t_, ptr %135, i32 0, i32 7
  %137 = load ptr, ptr %136, align 8
  %138 = ptrtoint ptr %137 to i64
  %139 = xor i64 %138, 1
  %140 = inttoptr i64 %139 to ptr
  %141 = icmp eq ptr %134, %140
  br i1 %141, label %142, label %186

142:                                              ; preds = %131
  %143 = load ptr, ptr %8, align 8
  %144 = getelementptr inbounds %struct.Fraig_NodeStruct_t_, ptr %143, i32 0, i32 8
  %145 = load ptr, ptr %144, align 8
  %146 = ptrtoint ptr %145 to i64
  %147 = and i64 %146, 1
  %148 = trunc i64 %147 to i32
  %149 = icmp ne i32 %148, 0
  br i1 %149, label %150, label %168

150:                                              ; preds = %142
  %151 = load ptr, ptr %9, align 8
  %152 = getelementptr inbounds %struct.Fraig_NodeStruct_t_, ptr %151, i32 0, i32 8
  %153 = load ptr, ptr %152, align 8
  %154 = ptrtoint ptr %153 to i64
  %155 = xor i64 %154, 1
  %156 = inttoptr i64 %155 to ptr
  %157 = load ptr, ptr %6, align 8
  store ptr %156, ptr %157, align 8
  %158 = load ptr, ptr %8, align 8
  %159 = getelementptr inbounds %struct.Fraig_NodeStruct_t_, ptr %158, i32 0, i32 7
  %160 = load ptr, ptr %159, align 8
  %161 = ptrtoint ptr %160 to i64
  %162 = xor i64 %161, 1
  %163 = inttoptr i64 %162 to ptr
  %164 = load ptr, ptr %7, align 8
  store ptr %163, ptr %164, align 8
  %165 = load ptr, ptr %9, align 8
  %166 = getelementptr inbounds %struct.Fraig_NodeStruct_t_, ptr %165, i32 0, i32 7
  %167 = load ptr, ptr %166, align 8
  store ptr %167, ptr %4, align 8
  br label %245

168:                                              ; preds = %142
  %169 = load ptr, ptr %8, align 8
  %170 = getelementptr inbounds %struct.Fraig_NodeStruct_t_, ptr %169, i32 0, i32 7
  %171 = load ptr, ptr %170, align 8
  %172 = ptrtoint ptr %171 to i64
  %173 = xor i64 %172, 1
  %174 = inttoptr i64 %173 to ptr
  %175 = load ptr, ptr %6, align 8
  store ptr %174, ptr %175, align 8
  %176 = load ptr, ptr %9, align 8
  %177 = getelementptr inbounds %struct.Fraig_NodeStruct_t_, ptr %176, i32 0, i32 8
  %178 = load ptr, ptr %177, align 8
  %179 = ptrtoint ptr %178 to i64
  %180 = xor i64 %179, 1
  %181 = inttoptr i64 %180 to ptr
  %182 = load ptr, ptr %7, align 8
  store ptr %181, ptr %182, align 8
  %183 = load ptr, ptr %8, align 8
  %184 = getelementptr inbounds %struct.Fraig_NodeStruct_t_, ptr %183, i32 0, i32 8
  %185 = load ptr, ptr %184, align 8
  store ptr %185, ptr %4, align 8
  br label %245

186:                                              ; preds = %131
  %187 = load ptr, ptr %8, align 8
  %188 = getelementptr inbounds %struct.Fraig_NodeStruct_t_, ptr %187, i32 0, i32 8
  %189 = load ptr, ptr %188, align 8
  %190 = load ptr, ptr %9, align 8
  %191 = getelementptr inbounds %struct.Fraig_NodeStruct_t_, ptr %190, i32 0, i32 8
  %192 = load ptr, ptr %191, align 8
  %193 = ptrtoint ptr %192 to i64
  %194 = xor i64 %193, 1
  %195 = inttoptr i64 %194 to ptr
  %196 = icmp eq ptr %189, %195
  br i1 %196, label %197, label %241

197:                                              ; preds = %186
  %198 = load ptr, ptr %8, align 8
  %199 = getelementptr inbounds %struct.Fraig_NodeStruct_t_, ptr %198, i32 0, i32 8
  %200 = load ptr, ptr %199, align 8
  %201 = ptrtoint ptr %200 to i64
  %202 = and i64 %201, 1
  %203 = trunc i64 %202 to i32
  %204 = icmp ne i32 %203, 0
  br i1 %204, label %205, label %223

205:                                              ; preds = %197
  %206 = load ptr, ptr %9, align 8
  %207 = getelementptr inbounds %struct.Fraig_NodeStruct_t_, ptr %206, i32 0, i32 7
  %208 = load ptr, ptr %207, align 8
  %209 = ptrtoint ptr %208 to i64
  %210 = xor i64 %209, 1
  %211 = inttoptr i64 %210 to ptr
  %212 = load ptr, ptr %6, align 8
  store ptr %211, ptr %212, align 8
  %213 = load ptr, ptr %8, align 8
  %214 = getelementptr inbounds %struct.Fraig_NodeStruct_t_, ptr %213, i32 0, i32 7
  %215 = load ptr, ptr %214, align 8
  %216 = ptrtoint ptr %215 to i64
  %217 = xor i64 %216, 1
  %218 = inttoptr i64 %217 to ptr
  %219 = load ptr, ptr %7, align 8
  store ptr %218, ptr %219, align 8
  %220 = load ptr, ptr %9, align 8
  %221 = getelementptr inbounds %struct.Fraig_NodeStruct_t_, ptr %220, i32 0, i32 8
  %222 = load ptr, ptr %221, align 8
  store ptr %222, ptr %4, align 8
  br label %245

223:                                              ; preds = %197
  %224 = load ptr, ptr %8, align 8
  %225 = getelementptr inbounds %struct.Fraig_NodeStruct_t_, ptr %224, i32 0, i32 7
  %226 = load ptr, ptr %225, align 8
  %227 = ptrtoint ptr %226 to i64
  %228 = xor i64 %227, 1
  %229 = inttoptr i64 %228 to ptr
  %230 = load ptr, ptr %6, align 8
  store ptr %229, ptr %230, align 8
  %231 = load ptr, ptr %9, align 8
  %232 = getelementptr inbounds %struct.Fraig_NodeStruct_t_, ptr %231, i32 0, i32 7
  %233 = load ptr, ptr %232, align 8
  %234 = ptrtoint ptr %233 to i64
  %235 = xor i64 %234, 1
  %236 = inttoptr i64 %235 to ptr
  %237 = load ptr, ptr %7, align 8
  store ptr %236, ptr %237, align 8
  %238 = load ptr, ptr %8, align 8
  %239 = getelementptr inbounds %struct.Fraig_NodeStruct_t_, ptr %238, i32 0, i32 8
  %240 = load ptr, ptr %239, align 8
  store ptr %240, ptr %4, align 8
  br label %245

241:                                              ; preds = %186
  br label %242

242:                                              ; preds = %241
  br label %243

243:                                              ; preds = %242
  br label %244

244:                                              ; preds = %243
  store ptr null, ptr %4, align 8
  br label %245

245:                                              ; preds = %244, %223, %205, %168, %150, %113, %95, %58, %40
  %246 = load ptr, ptr %4, align 8
  ret ptr %246
}