; Function Attrs: mustprogress nofree norecurse nosync nounwind willreturn memory(read, argmem: readwrite, inaccessiblemem: none) uwtable
define ptr @Fraig_NodeRecognizeMux(ptr noundef readonly captures(none) %0, ptr noundef writeonly captures(none) %1, ptr noundef writeonly captures(none) %2) local_unnamed_addr #8 {
  %4 = getelementptr inbounds nuw i8, ptr %0, i64 32
  %5 = load ptr, ptr %4, align 8
  %6 = ptrtoint ptr %5 to i64
  %7 = and i64 %6, -2
  %8 = inttoptr i64 %7 to ptr
  %9 = getelementptr inbounds nuw i8, ptr %0, i64 40
  %10 = load ptr, ptr %9, align 8
  %11 = ptrtoint ptr %10 to i64
  %12 = and i64 %11, -2
  %13 = inttoptr i64 %12 to ptr
  %14 = getelementptr inbounds nuw i8, ptr %8, i64 32
  %15 = load ptr, ptr %14, align 8
  %16 = getelementptr inbounds nuw i8, ptr %13, i64 32
  %17 = load ptr, ptr %16, align 8
  %18 = ptrtoint ptr %17 to i64
  %19 = xor i64 %18, 1
  %20 = inttoptr i64 %19 to ptr
  %21 = icmp eq ptr %15, %20
  br i1 %21, label %22, label %49

22:                                               ; preds = %3
  %23 = ptrtoint ptr %15 to i64
  %24 = and i64 %23, 1
  %.not62 = icmp eq i64 %24, 0
  br i1 %.not62, label %37, label %25

25:                                               ; preds = %22
  %26 = getelementptr inbounds nuw i8, ptr %13, i64 40
  %27 = load ptr, ptr %26, align 8
  %28 = ptrtoint ptr %27 to i64
  %29 = xor i64 %28, 1
  %30 = inttoptr i64 %29 to ptr
  store ptr %30, ptr %1, align 8
  %31 = getelementptr inbounds nuw i8, ptr %8, i64 40
  %32 = load ptr, ptr %31, align 8
  %33 = ptrtoint ptr %32 to i64
  %34 = xor i64 %33, 1
  %35 = inttoptr i64 %34 to ptr
  store ptr %35, ptr %2, align 8
  %36 = load ptr, ptr %16, align 8
  br label %117

37:                                               ; preds = %22
  %38 = getelementptr inbounds nuw i8, ptr %8, i64 40
  %39 = load ptr, ptr %38, align 8
  %40 = ptrtoint ptr %39 to i64
  %41 = xor i64 %40, 1
  %42 = inttoptr i64 %41 to ptr
  store ptr %42, ptr %1, align 8
  %43 = getelementptr inbounds nuw i8, ptr %13, i64 40
  %44 = load ptr, ptr %43, align 8
  %45 = ptrtoint ptr %44 to i64
  %46 = xor i64 %45, 1
  %47 = inttoptr i64 %46 to ptr
  store ptr %47, ptr %2, align 8
  %48 = load ptr, ptr %14, align 8
  br label %117

49:                                               ; preds = %3
  %50 = getelementptr inbounds nuw i8, ptr %13, i64 40
  %51 = load ptr, ptr %50, align 8
  %52 = ptrtoint ptr %51 to i64
  %53 = xor i64 %52, 1
  %54 = inttoptr i64 %53 to ptr
  %55 = icmp eq ptr %15, %54
  br i1 %55, label %56, label %77

56:                                               ; preds = %49
  %57 = ptrtoint ptr %15 to i64
  %58 = and i64 %57, 1
  %.not61 = icmp eq i64 %58, 0
  br i1 %.not61, label %66, label %59

59:                                               ; preds = %56
  store ptr %20, ptr %1, align 8
  %60 = getelementptr inbounds nuw i8, ptr %8, i64 40
  %61 = load ptr, ptr %60, align 8
  %62 = ptrtoint ptr %61 to i64
  %63 = xor i64 %62, 1
  %64 = inttoptr i64 %63 to ptr
  store ptr %64, ptr %2, align 8
  %65 = load ptr, ptr %50, align 8
  br label %117

66:                                               ; preds = %56
  %67 = getelementptr inbounds nuw i8, ptr %8, i64 40
  %68 = load ptr, ptr %67, align 8
  %69 = ptrtoint ptr %68 to i64
  %70 = xor i64 %69, 1
  %71 = inttoptr i64 %70 to ptr
  store ptr %71, ptr %1, align 8
  %72 = load ptr, ptr %16, align 8
  %73 = ptrtoint ptr %72 to i64
  %74 = xor i64 %73, 1
  %75 = inttoptr i64 %74 to ptr
  store ptr %75, ptr %2, align 8
  %76 = load ptr, ptr %14, align 8
  br label %117

77:                                               ; preds = %49
  %78 = getelementptr inbounds nuw i8, ptr %8, i64 40
  %79 = load ptr, ptr %78, align 8
  %80 = icmp eq ptr %79, %20
  br i1 %80, label %81, label %98

81:                                               ; preds = %77
  %82 = and i64 %18, 1
  %.not60.not = icmp eq i64 %82, 0
  br i1 %.not60.not, label %83, label %89

83:                                               ; preds = %81
  store ptr %54, ptr %1, align 8
  %84 = load ptr, ptr %14, align 8
  %85 = ptrtoint ptr %84 to i64
  %86 = xor i64 %85, 1
  %87 = inttoptr i64 %86 to ptr
  store ptr %87, ptr %2, align 8
  %88 = load ptr, ptr %16, align 8
  br label %117

89:                                               ; preds = %81
  %90 = ptrtoint ptr %15 to i64
  %91 = xor i64 %90, 1
  %92 = inttoptr i64 %91 to ptr
  store ptr %92, ptr %1, align 8
  %93 = load ptr, ptr %50, align 8
  %94 = ptrtoint ptr %93 to i64
  %95 = xor i64 %94, 1
  %96 = inttoptr i64 %95 to ptr
  store ptr %96, ptr %2, align 8
  %97 = load ptr, ptr %78, align 8
  br label %117

98:                                               ; preds = %77
  %99 = icmp eq ptr %79, %54
  br i1 %99, label %100, label %117

100:                                              ; preds = %98
  %101 = and i64 %52, 1
  %.not.not = icmp eq i64 %101, 0
  br i1 %.not.not, label %102, label %108

102:                                              ; preds = %100
  store ptr %20, ptr %1, align 8
  %103 = load ptr, ptr %14, align 8
  %104 = ptrtoint ptr %103 to i64
  %105 = xor i64 %104, 1
  %106 = inttoptr i64 %105 to ptr
  store ptr %106, ptr %2, align 8
  %107 = load ptr, ptr %50, align 8
  br label %117

108:                                              ; preds = %100
  %109 = ptrtoint ptr %15 to i64
  %110 = xor i64 %109, 1
  %111 = inttoptr i64 %110 to ptr
  store ptr %111, ptr %1, align 8
  %112 = load ptr, ptr %16, align 8
  %113 = ptrtoint ptr %112 to i64
  %114 = xor i64 %113, 1
  %115 = inttoptr i64 %114 to ptr
  store ptr %115, ptr %2, align 8
  %116 = load ptr, ptr %78, align 8
  br label %117

117:                                              ; preds = %98, %108, %102, %89, %83, %66, %59, %37, %25
  %.0 = phi ptr [ %36, %25 ], [ %48, %37 ], [ %65, %59 ], [ %76, %66 ], [ %88, %83 ], [ %97, %89 ], [ %107, %102 ], [ %116, %108 ], [ null, %98 ]
  ret ptr %.0
}